target datalayout = "e-m:e-p270:32:32-p271:32:32-p272:64:64-i64:64-i128:128-f80:128-n8:16:32:64-S128"
target triple = "x86_64-pc-linux-gnu"

@.str = private unnamed_addr constant [5 x i8] c"Ruby\00", align 1
@.str.18 = private unnamed_addr constant [7 x i8] c" +YJIT\00", align 1
@rb_cObject = external global i64, align 8
@ruby_set_yjit_description.rbimpl_id = internal global i64 0, align 8
@.str.20 = private unnamed_addr constant [17 x i8] c"RUBY_DESCRIPTION\00", align 1
@ruby_set_yjit_description.rbimpl_id.21 = internal global i64 0, align 8
@.str.22 = private unnamed_addr constant [12 x i8] c"DESCRIPTION\00", align 1

; Function Attrs: inlinehint nounwind sspstrong willreturn memory(read) uwtable
define internal i64 @rb_intern_const(ptr noundef nonnull %0) #8 {
  %2 = alloca ptr, align 8
  %3 = alloca i64, align 8
  store ptr %0, ptr %2, align 8, !tbaa !11
  call void @llvm.lifetime.start.p0(i64 8, ptr %3) #10
  %4 = load ptr, ptr %2, align 8, !tbaa !11
  %5 = call i64 @strlen(ptr noundef %4) #12
  store i64 %5, ptr %3, align 8, !tbaa !7
  %6 = load ptr, ptr %2, align 8, !tbaa !11
  %7 = load i64, ptr %3, align 8, !tbaa !7
  %8 = call i64 @rb_intern2(ptr noundef %6, i64 noundef %7)
  call void @llvm.lifetime.end.p0(i64 8, ptr %3) #10
  ret i64 %8
}

; Function Attrs: inlinehint nounwind sspstrong memory(argmem: readwrite, inaccessiblemem: readwrite) uwtable
define internal i64 @rbimpl_intern_const(ptr noundef nonnull %0, ptr noundef nonnull %1) #4 {
  %3 = alloca ptr, align 8
  %4 = alloca ptr, align 8
  store ptr %0, ptr %3, align 8, !tbaa !23
  store ptr %1, ptr %4, align 8, !tbaa !11
  br label %5

5:                                                ; preds = %10, %2
  %6 = load ptr, ptr %3, align 8, !tbaa !23
  %7 = load i64, ptr %6, align 8, !tbaa !7
  %8 = icmp ne i64 %7, 0
  %9 = xor i1 %8, true
  br i1 %9, label %10, label %14

10:                                               ; preds = %5
  %11 = load ptr, ptr %4, align 8, !tbaa !11
  %12 = call i64 @rb_intern_const(ptr noundef %11) #12
  %13 = load ptr, ptr %3, align 8, !tbaa !23
  store i64 %12, ptr %13, align 8, !tbaa !7
  br label %5, !llvm.loop !25

14:                                               ; preds = %5
  %15 = load ptr, ptr %3, align 8, !tbaa !23
  %16 = load i64, ptr %15, align 8, !tbaa !7
  ret i64 %16
}

; Function Attrs: nounwind sspstrong uwtable
define hidden void @ruby_set_yjit_description() #0 {
  %1 = alloca i64, align 8
  %2 = alloca i64, align 8
  %3 = alloca i64, align 8
  call void @llvm.lifetime.start.p0(i64 8, ptr %1) #10
  %4 = call i64 @rb_path2class(ptr noundef @.str)
  store i64 %4, ptr %1, align 8, !tbaa !7
  %5 = load i64, ptr @rb_cObject, align 8, !tbaa !7
  %6 = call i64 @rbimpl_intern_const(ptr noundef @ruby_set_yjit_description.rbimpl_id, ptr noundef @.str.20) #11
  store i64 %6, ptr %2, align 8, !tbaa !7
  %7 = load i64, ptr %2, align 8, !tbaa !7
  %8 = call i64 @rb_const_remove(i64 noundef %5, i64 noundef %7)
  %9 = load i64, ptr %1, align 8, !tbaa !7
  %10 = call i64 @rbimpl_intern_const(ptr noundef @ruby_set_yjit_description.rbimpl_id.21, ptr noundef @.str.22) #11
  store i64 %10, ptr %3, align 8, !tbaa !7
  %11 = load i64, ptr %3, align 8, !tbaa !7
  %12 = call i64 @rb_const_remove(i64 noundef %9, i64 noundef %11)
  call void @define_ruby_description(ptr noundef @.str.18)
  call void @llvm.lifetime.end.p0(i64 8, ptr %1) #10
  ret void
}