; Function Attrs: nounwind sspstrong uwtable
define hidden void @ruby_set_yjit_description() local_unnamed_addr #0 {
  %1 = tail call i64 @rb_path2class(ptr noundef nonnull @.str) #8
  %2 = load i64, ptr @rb_cObject, align 8, !tbaa !15
  %.pr.i = load i64, ptr @ruby_set_yjit_description.rbimpl_id, align 8, !tbaa !15
  %.not4.i = icmp eq i64 %.pr.i, 0
  br i1 %.not4.i, label %.lr.ph.i, label %rbimpl_intern_const.exit

.lr.ph.i:                                         ; preds = %0, %.lr.ph.i
  %3 = tail call i64 @rb_intern2(ptr noundef nonnull @.str.20, i64 noundef 16) #8
  store i64 %3, ptr @ruby_set_yjit_description.rbimpl_id, align 8, !tbaa !15
  %.not.i = icmp eq i64 %3, 0
  br i1 %.not.i, label %.lr.ph.i, label %rbimpl_intern_const.exit, !llvm.loop !17

rbimpl_intern_const.exit:                         ; preds = %.lr.ph.i, %0
  %.lcssa.i = phi i64 [ %.pr.i, %0 ], [ %3, %.lr.ph.i ]
  %4 = tail call i64 @rb_const_remove(i64 noundef %2, i64 noundef %.lcssa.i) #8
  %.pr.i3 = load i64, ptr @ruby_set_yjit_description.rbimpl_id.21, align 8, !tbaa !15
  %.not4.i4 = icmp eq i64 %.pr.i3, 0
  br i1 %.not4.i4, label %.lr.ph.i6, label %rbimpl_intern_const.exit8

.lr.ph.i6:                                        ; preds = %rbimpl_intern_const.exit, %.lr.ph.i6
  %5 = tail call i64 @rb_intern2(ptr noundef nonnull @.str.22, i64 noundef 11) #8
  store i64 %5, ptr @ruby_set_yjit_description.rbimpl_id.21, align 8, !tbaa !15
  %.not.i7 = icmp eq i64 %5, 0
  br i1 %.not.i7, label %.lr.ph.i6, label %rbimpl_intern_const.exit8, !llvm.loop !17

rbimpl_intern_const.exit8:                        ; preds = %.lr.ph.i6, %rbimpl_intern_const.exit
  %.lcssa.i5 = phi i64 [ %.pr.i3, %rbimpl_intern_const.exit ], [ %5, %.lr.ph.i6 ]
  %6 = tail call i64 @rb_const_remove(i64 noundef %1, i64 noundef %.lcssa.i5) #8
  tail call fastcc void @define_ruby_description(ptr noundef nonnull @.str.18)
  ret void
}